; Function Attrs: nounwind uwtable
define ptr @l_Lean_RBNode_forIn_visit___at_Lean_RBMap_instForInProd___spec__1___rarg___lambda__1(ptr noundef %0, ptr noundef %1, ptr noundef %2, ptr noundef %3) #1 {
  %5 = ptrtoint ptr %3 to i64
  %6 = and i64 %5, 1
  %.not.i35 = icmp eq i64 %6, 0
  br i1 %.not.i35, label %10, label %7

7:                                                ; preds = %4
  %8 = lshr i64 %5, 1
  %9 = trunc i64 %8 to i32
  br label %lean_obj_tag.exit

10:                                               ; preds = %4
  %11 = getelementptr i8, ptr %3, i64 4
  %.val.i = load i32, ptr %11, align 4
  %12 = lshr i32 %.val.i, 24
  br label %lean_obj_tag.exit

lean_obj_tag.exit:                                ; preds = %7, %10
  %.0.i = phi i32 [ %9, %7 ], [ %12, %10 ]
  %13 = icmp eq i32 %.0.i, 0
  br i1 %13, label %14, label %70

14:                                               ; preds = %lean_obj_tag.exit
  %15 = ptrtoint ptr %2 to i64
  %16 = and i64 %15, 1
  %.not45 = icmp eq i64 %16, 0
  br i1 %.not45, label %17, label %lean_dec.exit24

17:                                               ; preds = %14
  %18 = load i32, ptr %2, align 4, !tbaa !4
  %19 = icmp sgt i32 %18, 1
  br i1 %19, label %20, label %22, !prof !9

20:                                               ; preds = %17
  %21 = add nsw i32 %18, -1
  store i32 %21, ptr %2, align 4, !tbaa !4
  br label %lean_dec.exit24

22:                                               ; preds = %17
  %.not.i = icmp eq i32 %18, 0
  br i1 %.not.i, label %lean_dec.exit24, label %23

23:                                               ; preds = %22
  tail call void @lean_dec_ref_cold(ptr noundef nonnull %2) #9
  br label %lean_dec.exit24

lean_dec.exit24:                                  ; preds = %23, %22, %20, %14
  %24 = ptrtoint ptr %1 to i64
  %25 = and i64 %24, 1
  %.not46 = icmp eq i64 %25, 0
  br i1 %.not46, label %26, label %lean_dec.exit23

26:                                               ; preds = %lean_dec.exit24
  %27 = load i32, ptr %1, align 4, !tbaa !4
  %28 = icmp sgt i32 %27, 1
  br i1 %28, label %29, label %31, !prof !9

29:                                               ; preds = %26
  %30 = add nsw i32 %27, -1
  store i32 %30, ptr %1, align 4, !tbaa !4
  br label %lean_dec.exit23

31:                                               ; preds = %26
  %.not.i27 = icmp eq i32 %27, 0
  br i1 %.not.i27, label %lean_dec.exit23, label %32

32:                                               ; preds = %31
  tail call void @lean_dec_ref_cold(ptr noundef nonnull %1) #9
  br label %lean_dec.exit23

lean_dec.exit23:                                  ; preds = %32, %31, %29, %lean_dec.exit24
  %33 = getelementptr inbounds nuw i8, ptr %0, i64 8
  %34 = load ptr, ptr %33, align 8, !tbaa !10
  %35 = ptrtoint ptr %34 to i64
  %36 = and i64 %35, 1
  %.not47 = icmp eq i64 %36, 0
  br i1 %.not47, label %37, label %lean_inc.exit26

37:                                               ; preds = %lean_dec.exit23
  %.val.i36 = load i32, ptr %34, align 4, !tbaa !4
  %38 = icmp sgt i32 %.val.i36, 0
  br i1 %38, label %39, label %41, !prof !9

39:                                               ; preds = %37
  %40 = add nuw i32 %.val.i36, 1
  store i32 %40, ptr %34, align 4, !tbaa !4
  br label %lean_inc.exit26

41:                                               ; preds = %37
  %.not.i37 = icmp eq i32 %.val.i36, 0
  br i1 %.not.i37, label %lean_inc.exit26, label %42

42:                                               ; preds = %41
  tail call void @lean_inc_ref_cold(ptr noundef nonnull %34) #9
  br label %lean_inc.exit26

lean_inc.exit26:                                  ; preds = %42, %41, %39, %lean_dec.exit23
  %43 = ptrtoint ptr %0 to i64
  %44 = and i64 %43, 1
  %.not48 = icmp eq i64 %44, 0
  br i1 %.not48, label %45, label %lean_dec.exit22

45:                                               ; preds = %lean_inc.exit26
  %46 = load i32, ptr %0, align 4, !tbaa !4
  %47 = icmp sgt i32 %46, 1
  br i1 %47, label %48, label %50, !prof !9

48:                                               ; preds = %45
  %49 = add nsw i32 %46, -1
  store i32 %49, ptr %0, align 4, !tbaa !4
  br label %lean_dec.exit22

50:                                               ; preds = %45
  %.not.i29 = icmp eq i32 %46, 0
  br i1 %.not.i29, label %lean_dec.exit22, label %51

51:                                               ; preds = %50
  tail call void @lean_dec_ref_cold(ptr noundef nonnull %0) #9
  br label %lean_dec.exit22

lean_dec.exit22:                                  ; preds = %51, %50, %48, %lean_inc.exit26
  %52 = getelementptr inbounds nuw i8, ptr %34, i64 16
  %53 = load ptr, ptr %52, align 8, !tbaa !10
  %54 = ptrtoint ptr %53 to i64
  %55 = and i64 %54, 1
  %.not49 = icmp eq i64 %55, 0
  br i1 %.not49, label %56, label %lean_inc.exit25

56:                                               ; preds = %lean_dec.exit22
  %.val.i38 = load i32, ptr %53, align 4, !tbaa !4
  %57 = icmp sgt i32 %.val.i38, 0
  br i1 %57, label %58, label %60, !prof !9

58:                                               ; preds = %56
  %59 = add nuw i32 %.val.i38, 1
  store i32 %59, ptr %53, align 4, !tbaa !4
  br label %lean_inc.exit25

60:                                               ; preds = %56
  %.not.i39 = icmp eq i32 %.val.i38, 0
  br i1 %.not.i39, label %lean_inc.exit25, label %61

61:                                               ; preds = %60
  tail call void @lean_inc_ref_cold(ptr noundef nonnull %53) #9
  br label %lean_inc.exit25

lean_inc.exit25:                                  ; preds = %61, %60, %58, %lean_dec.exit22
  br i1 %.not47, label %62, label %lean_dec.exit21

62:                                               ; preds = %lean_inc.exit25
  %63 = load i32, ptr %34, align 4, !tbaa !4
  %64 = icmp sgt i32 %63, 1
  br i1 %64, label %65, label %67, !prof !9

65:                                               ; preds = %62
  %66 = add nsw i32 %63, -1
  store i32 %66, ptr %34, align 4, !tbaa !4
  br label %lean_dec.exit21

67:                                               ; preds = %62
  %.not.i31 = icmp eq i32 %63, 0
  br i1 %.not.i31, label %lean_dec.exit21, label %68

68:                                               ; preds = %67
  tail call void @lean_dec_ref_cold(ptr noundef nonnull %34) #9
  br label %lean_dec.exit21

lean_dec.exit21:                                  ; preds = %68, %67, %65, %lean_inc.exit25
  %69 = tail call ptr @lean_apply_2(ptr noundef %53, ptr noundef nonnull inttoptr (i64 1 to ptr), ptr noundef %3) #9
  br label %89

70:                                               ; preds = %lean_obj_tag.exit
  %71 = getelementptr inbounds nuw i8, ptr %3, i64 8
  %72 = load ptr, ptr %71, align 8, !tbaa !10
  %73 = ptrtoint ptr %72 to i64
  %74 = and i64 %73, 1
  %.not = icmp eq i64 %74, 0
  br i1 %.not, label %75, label %lean_inc.exit

75:                                               ; preds = %70
  %.val.i41 = load i32, ptr %72, align 4, !tbaa !4
  %76 = icmp sgt i32 %.val.i41, 0
  br i1 %76, label %77, label %79, !prof !9

77:                                               ; preds = %75
  %78 = add nuw i32 %.val.i41, 1
  store i32 %78, ptr %72, align 4, !tbaa !4
  br label %lean_inc.exit

79:                                               ; preds = %75
  %.not.i42 = icmp eq i32 %.val.i41, 0
  br i1 %.not.i42, label %lean_inc.exit, label %80

80:                                               ; preds = %79
  tail call void @lean_inc_ref_cold(ptr noundef nonnull %72) #9
  br label %lean_inc.exit

lean_inc.exit:                                    ; preds = %80, %79, %77, %70
  br i1 %.not.i35, label %81, label %lean_dec.exit

81:                                               ; preds = %lean_inc.exit
  %82 = load i32, ptr %3, align 4, !tbaa !4
  %83 = icmp sgt i32 %82, 1
  br i1 %83, label %84, label %86, !prof !9

84:                                               ; preds = %81
  %85 = add nsw i32 %82, -1
  store i32 %85, ptr %3, align 4, !tbaa !4
  br label %lean_dec.exit

86:                                               ; preds = %81
  %.not.i33 = icmp eq i32 %82, 0
  br i1 %.not.i33, label %lean_dec.exit, label %87

87:                                               ; preds = %86
  tail call void @lean_dec_ref_cold(ptr noundef nonnull %3) #9
  br label %lean_dec.exit

lean_dec.exit:                                    ; preds = %87, %86, %84, %lean_inc.exit
  %88 = tail call ptr @l_Lean_RBNode_forIn_visit___at_Lean_RBMap_instForInProd___spec__1___rarg(ptr noundef %0, ptr noundef %1, ptr noundef %2, ptr noundef %72)
  br label %89

89:                                               ; preds = %lean_dec.exit, %lean_dec.exit21
  %.0 = phi ptr [ %69, %lean_dec.exit21 ], [ %88, %lean_dec.exit ]
  ret ptr %.0
}